; Function Attrs: mustprogress nounwind uwtable
define hidden noundef i32 @_ZNK6G1NUMA23index_of_current_threadEv(ptr nocapture noundef nonnull readonly align 8 dereferenceable(56) %0) local_unnamed_addr #1 align 2 {
  %2 = getelementptr inbounds i8, ptr %0, i64 24
  %3 = load i32, ptr %2, align 8
  %4 = icmp ugt i32 %3, 1
  br i1 %4, label %5, label %11

5:                                                ; preds = %1
  %6 = tail call noundef i32 @_ZN2os17numa_get_group_idEv() #12
  %7 = load ptr, ptr %0, align 8
  %8 = zext i32 %6 to i64
  %9 = getelementptr inbounds i32, ptr %7, i64 %8
  %10 = load i32, ptr %9, align 4
  br label %11

11:                                               ; preds = %1, %5
  %.0 = phi i32 [ %10, %5 ], [ 0, %1 ]
  ret i32 %.0
}